; Function Attrs: mustprogress nofree norecurse nosync nounwind willreturn memory(argmem: read) uwtable
define noundef i64 @_ZN7rocksdb23MaxFileSizeForL0MetaPinERKNS_16MutableCFOptionsE(ptr nocapture noundef nonnull readonly align 8 dereferenceable(560) %cf_options) local_unnamed_addr #12 {
entry:
  %0 = load i64, ptr %cf_options, align 8
  %div12 = lshr i64 %0, 1
  %cmp = icmp ugt i64 %0, -6148914691236517205
  %mul = mul nuw i64 %div12, 3
  %spec.select = select i1 %cmp, i64 -1, i64 %mul
  ret i64 %spec.select
}